; Function Attrs: nounwind uwtable
define internal ptr @element_new(ptr noundef %0, ptr readnone captures(none) %1, ptr readnone captures(none) %2) #0 {
  %4 = getelementptr inbounds nuw i8, ptr %0, i64 304
  %5 = load ptr, ptr %4, align 8, !tbaa !105
  %6 = tail call ptr %5(ptr noundef %0, i64 noundef 0) #12
  %.not = icmp eq ptr %6, null
  br i1 %.not, label %22, label %7

7:                                                ; preds = %3
  %8 = load i32, ptr @_Py_NoneStruct, align 8, !tbaa !21
  %9 = icmp slt i32 %8, 0
  br i1 %9, label %_Py_NewRef.exit.thread, label %_Py_NewRef.exit

_Py_NewRef.exit.thread:                           ; preds = %7
  %10 = getelementptr inbounds nuw i8, ptr %6, i64 16
  store ptr @_Py_NoneStruct, ptr %10, align 8, !tbaa !44
  br label %_Py_NewRef.exit9.thread

_Py_NewRef.exit:                                  ; preds = %7
  %11 = add nuw i32 %8, 1
  store i32 %11, ptr @_Py_NoneStruct, align 8, !tbaa !21
  %12 = getelementptr inbounds nuw i8, ptr %6, i64 16
  store ptr @_Py_NoneStruct, ptr %12, align 8, !tbaa !44
  %13 = icmp slt i32 %11, 0
  br i1 %13, label %_Py_NewRef.exit9.thread, label %_Py_NewRef.exit9

_Py_NewRef.exit9.thread:                          ; preds = %_Py_NewRef.exit.thread, %_Py_NewRef.exit
  %14 = getelementptr inbounds nuw i8, ptr %6, i64 24
  store ptr @_Py_NoneStruct, ptr %14, align 8, !tbaa !45
  br label %_Py_NewRef.exit10

_Py_NewRef.exit9:                                 ; preds = %_Py_NewRef.exit
  %15 = add nuw i32 %8, 2
  store i32 %15, ptr @_Py_NoneStruct, align 8, !tbaa !21
  %16 = getelementptr inbounds nuw i8, ptr %6, i64 24
  store ptr @_Py_NoneStruct, ptr %16, align 8, !tbaa !45
  %17 = icmp slt i32 %15, 0
  br i1 %17, label %_Py_NewRef.exit10, label %18

18:                                               ; preds = %_Py_NewRef.exit9
  %19 = add nuw i32 %8, 3
  store i32 %19, ptr @_Py_NoneStruct, align 8, !tbaa !21
  br label %_Py_NewRef.exit10

_Py_NewRef.exit10:                                ; preds = %_Py_NewRef.exit9.thread, %_Py_NewRef.exit9, %18
  %20 = getelementptr inbounds nuw i8, ptr %6, i64 32
  store ptr @_Py_NoneStruct, ptr %20, align 8, !tbaa !46
  %21 = getelementptr inbounds nuw i8, ptr %6, i64 40
  tail call void @llvm.memset.p0.i64(ptr noundef nonnull align 8 dereferenceable(16) %21, i8 0, i64 16, i1 false)
  br label %22

22:                                               ; preds = %_Py_NewRef.exit10, %3
  ret ptr %6
}